; ModuleID = '49/156.c'
source_filename = "49/156.c"
target datalayout = "e-m:e-p270:32:32-p271:32:32-p272:64:64-i64:64-f80:128-n8:16:32:64-S128"
target triple = "x86_64-pc-linux-gnu"

@.str = private unnamed_addr constant [3 x i8] c"%d\00", align 1
@.str.1 = private unnamed_addr constant [4 x i8] c"%s\0A\00", align 1
@.str.2 = private unnamed_addr constant [3 x i8] c"%s\00", align 1

; Function Attrs: noinline nounwind uwtable
define dso_local void @pause() #0 {
  %1 = alloca i32, align 4
  %2 = call i32 (i8*, ...) @__isoc99_scanf(i8* getelementptr inbounds ([3 x i8], [3 x i8]* @.str, i64 0, i64 0), i32* %1)
  ret void
}

declare dso_local i32 @__isoc99_scanf(i8*, ...) #1

; Function Attrs: noinline nounwind uwtable
define dso_local void @find_huiwen(i8* %0, i32 %1, i32 %2) #0 {
  %4 = alloca i8*, align 8
  %5 = alloca i32, align 4
  %6 = alloca i32, align 4
  %7 = alloca i8*, align 8
  %8 = alloca i8*, align 8
  %9 = alloca i32, align 4
  %10 = alloca i32, align 4
  store i8* %0, i8** %4, align 8
  store i32 %1, i32* %5, align 4
  store i32 %2, i32* %6, align 4
  %11 = load i32, i32* %5, align 4
  %12 = add nsw i32 %11, 1
  %13 = sext i32 %12 to i64
  %14 = mul i64 %13, 1
  %15 = call noalias i8* @malloc(i64 %14) #4
  store i8* %15, i8** %7, align 8
  %16 = load i32, i32* %5, align 4
  %17 = add nsw i32 %16, 1
  %18 = sext i32 %17 to i64
  %19 = mul i64 %18, 1
  %20 = call noalias i8* @malloc(i64 %19) #4
  store i8* %20, i8** %8, align 8
  store i32 0, i32* %9, align 4
  br label %21

21:                                               ; preds = %65, %3
  %22 = load i32, i32* %9, align 4
  %23 = load i32, i32* %6, align 4
  %24 = load i32, i32* %5, align 4
  %25 = sub nsw i32 %23, %24
  %26 = icmp sle i32 %22, %25
  br i1 %26, label %27, label %68

27:                                               ; preds = %21
  store i32 0, i32* %10, align 4
  br label %28

28:                                               ; preds = %46, %27
  %29 = load i32, i32* %10, align 4
  %30 = load i32, i32* %5, align 4
  %31 = sub nsw i32 %30, 1
  %32 = icmp sle i32 %29, %31
  br i1 %32, label %33, label %49

33:                                               ; preds = %28
  %34 = load i8*, i8** %4, align 8
  %35 = load i32, i32* %9, align 4
  %36 = sext i32 %35 to i64
  %37 = getelementptr inbounds i8, i8* %34, i64 %36
  %38 = load i32, i32* %10, align 4
  %39 = sext i32 %38 to i64
  %40 = getelementptr inbounds i8, i8* %37, i64 %39
  %41 = load i8, i8* %40, align 1
  %42 = load i8*, i8** %7, align 8
  %43 = load i32, i32* %10, align 4
  %44 = sext i32 %43 to i64
  %45 = getelementptr inbounds i8, i8* %42, i64 %44
  store i8 %41, i8* %45, align 1
  br label %46

46:                                               ; preds = %33
  %47 = load i32, i32* %10, align 4
  %48 = add nsw i32 %47, 1
  store i32 %48, i32* %10, align 4
  br label %28

49:                                               ; preds = %28
  %50 = load i8*, i8** %7, align 8
  %51 = load i32, i32* %5, align 4
  %52 = sext i32 %51 to i64
  %53 = getelementptr inbounds i8, i8* %50, i64 %52
  store i8 0, i8* %53, align 1
  %54 = load i8*, i8** %7, align 8
  %55 = load i8*, i8** %8, align 8
  %56 = load i32, i32* %5, align 4
  call void @reverse(i8* %54, i8* %55, i32 %56)
  %57 = load i8*, i8** %8, align 8
  %58 = load i8*, i8** %7, align 8
  %59 = call i32 @strcmp(i8* %57, i8* %58) #5
  %60 = icmp eq i32 %59, 0
  br i1 %60, label %61, label %64

61:                                               ; preds = %49
  %62 = load i8*, i8** %7, align 8
  %63 = call i32 (i8*, ...) @printf(i8* getelementptr inbounds ([4 x i8], [4 x i8]* @.str.1, i64 0, i64 0), i8* %62)
  br label %64

64:                                               ; preds = %61, %49
  br label %65

65:                                               ; preds = %64
  %66 = load i32, i32* %9, align 4
  %67 = add nsw i32 %66, 1
  store i32 %67, i32* %9, align 4
  br label %21

68:                                               ; preds = %21
  ret void
}

; Function Attrs: nounwind
declare dso_local noalias i8* @malloc(i64) #2

; Function Attrs: noinline nounwind uwtable
define dso_local void @reverse(i8* %0, i8* %1, i32 %2) #0 {
  %4 = alloca i8*, align 8
  %5 = alloca i8*, align 8
  %6 = alloca i32, align 4
  %7 = alloca i32, align 4
  store i8* %0, i8** %4, align 8
  store i8* %1, i8** %5, align 8
  store i32 %2, i32* %6, align 4
  store i32 0, i32* %7, align 4
  br label %8

8:                                                ; preds = %25, %3
  %9 = load i32, i32* %7, align 4
  %10 = load i32, i32* %6, align 4
  %11 = icmp sle i32 %9, %10
  br i1 %11, label %12, label %28

12:                                               ; preds = %8
  %13 = load i8*, i8** %4, align 8
  %14 = load i32, i32* %6, align 4
  %15 = sub nsw i32 %14, 1
  %16 = load i32, i32* %7, align 4
  %17 = sub nsw i32 %15, %16
  %18 = sext i32 %17 to i64
  %19 = getelementptr inbounds i8, i8* %13, i64 %18
  %20 = load i8, i8* %19, align 1
  %21 = load i8*, i8** %5, align 8
  %22 = load i32, i32* %7, align 4
  %23 = sext i32 %22 to i64
  %24 = getelementptr inbounds i8, i8* %21, i64 %23
  store i8 %20, i8* %24, align 1
  br label %25

25:                                               ; preds = %12
  %26 = load i32, i32* %7, align 4
  %27 = add nsw i32 %26, 1
  store i32 %27, i32* %7, align 4
  br label %8

28:                                               ; preds = %8
  %29 = load i8*, i8** %5, align 8
  %30 = load i32, i32* %6, align 4
  %31 = sext i32 %30 to i64
  %32 = getelementptr inbounds i8, i8* %29, i64 %31
  store i8 0, i8* %32, align 1
  ret void
}

; Function Attrs: nounwind readonly
declare dso_local i32 @strcmp(i8*, i8*) #3

declare dso_local i32 @printf(i8*, ...) #1

; Function Attrs: noinline nounwind uwtable
define dso_local i32 @main() #0 {
  %1 = alloca i32, align 4
  %2 = alloca [500 x i8], align 16
  %3 = alloca i32, align 4
  %4 = alloca i32, align 4
  store i32 0, i32* %1, align 4
  %5 = getelementptr inbounds [500 x i8], [500 x i8]* %2, i64 0, i64 0
  %6 = call i32 (i8*, ...) @__isoc99_scanf(i8* getelementptr inbounds ([3 x i8], [3 x i8]* @.str.2, i64 0, i64 0), i8* %5)
  %7 = getelementptr inbounds [500 x i8], [500 x i8]* %2, i64 0, i64 0
  %8 = call i64 @strlen(i8* %7) #5
  %9 = trunc i64 %8 to i32
  store i32 %9, i32* %3, align 4
  store i32 2, i32* %4, align 4
  br label %10

10:                                               ; preds = %18, %0
  %11 = load i32, i32* %4, align 4
  %12 = load i32, i32* %3, align 4
  %13 = icmp sle i32 %11, %12
  br i1 %13, label %14, label %21

14:                                               ; preds = %10
  %15 = getelementptr inbounds [500 x i8], [500 x i8]* %2, i64 0, i64 0
  %16 = load i32, i32* %4, align 4
  %17 = load i32, i32* %3, align 4
  call void @find_huiwen(i8* %15, i32 %16, i32 %17)
  br label %18

18:                                               ; preds = %14
  %19 = load i32, i32* %4, align 4
  %20 = add nsw i32 %19, 1
  store i32 %20, i32* %4, align 4
  br label %10

21:                                               ; preds = %10
  call void @pause()
  ret i32 0
}

; Function Attrs: nounwind readonly
declare dso_local i64 @strlen(i8*) #3


!llvm.module.flags = !{!0}
!llvm.ident = !{!1}

!0 = !{i32 1, !"wchar_size", i32 4}
!1 = !{!"clang version 10.0.0-4ubuntu1 "}
